; Function Attrs: nounwind uwtable
define internal void @heapctype_dealloc(ptr noundef %0) #0 {
  %2 = getelementptr i8, ptr %0, i64 8
  %.val = load ptr, ptr %2, align 8, !tbaa !9
  tail call void @PyObject_Free(ptr noundef %0) #8
  %3 = load i32, ptr %.val, align 8, !tbaa !8
  %.not.i = icmp sgt i32 %3, -1
  br i1 %.not.i, label %4, label %Py_DECREF.exit

4:                                                ; preds = %1
  %5 = add nsw i32 %3, -1
  store i32 %5, ptr %.val, align 8, !tbaa !8
  %6 = icmp eq i32 %5, 0
  br i1 %6, label %7, label %Py_DECREF.exit

7:                                                ; preds = %4
  tail call void @_Py_Dealloc(ptr noundef nonnull %.val) #8
  br label %Py_DECREF.exit

Py_DECREF.exit:                                   ; preds = %1, %4, %7
  ret void
}